target datalayout = "e-m:e-p270:32:32-p271:32:32-p272:64:64-i64:64-i128:128-f80:128-n8:16:32:64-S128"
target triple = "x86_64-pc-linux-gnu"

%"class.euf::ac_plugin" = type { %"class.euf::plugin", i32, i32, ptr, %class.vector, %class.ptr_vector, %class.svector, %class.vector.2, %class.svector.3, %class.stacked_dependency_manager, %class.tracked_uint_set, %class.tracked_uint_set, i64, %"struct.euf::ac_plugin::monomial_hash", %"struct.euf::ac_plugin::monomial_eq", %class.map, %class.svector.11, %class.ptr_vector, %class.svector.13, %class.svector.15, %class.svector.17, %"class.std::function", %class.ptr_vector.19, %class.ptr_vector, %class.ptr_vector, %class.ptr_vector, %class.ptr_vector, %"struct.euf::ac_plugin::ref_counts", %"struct.euf::ac_plugin::ref_counts", %"struct.euf::ac_plugin::ref_counts", %"struct.euf::ac_plugin::ref_counts", %"struct.euf::ac_plugin::ref_counts", %"struct.euf::ac_plugin::ref_counts", %class.svector.9, %class.svector }
%"class.euf::plugin" = type { ptr, ptr }
%class.vector = type { ptr }
%class.vector.2 = type { ptr }
%class.svector.3 = type { %class.vector.4 }
%class.vector.4 = type { ptr }
%class.stacked_dependency_manager = type { [8 x i8], %"class.stacked_dependency_manager<euf::justification>::config::allocator", %class.dependency_manager }
%"class.stacked_dependency_manager<euf::justification>::config::allocator" = type { ptr }
%class.dependency_manager = type { ptr, ptr, %class.ptr_vector.5 }
%class.ptr_vector.5 = type { %class.vector.6 }
%class.vector.6 = type { ptr }
%class.tracked_uint_set = type { %class.svector.7, %class.svector.9 }
%class.svector.7 = type { %class.vector.8 }
%class.vector.8 = type { ptr }
%"struct.euf::ac_plugin::monomial_hash" = type { ptr }
%"struct.euf::ac_plugin::monomial_eq" = type { ptr }
%class.map = type { %class.table2map }
%class.table2map = type { %class.core_hashtable }
%class.core_hashtable = type <{ %"struct.table2map<default_map_entry<unsigned int, euf::ac_plugin::shared>, euf::ac_plugin::monomial_hash, euf::ac_plugin::monomial_eq>::entry_hash_proc", %"struct.table2map<default_map_entry<unsigned int, euf::ac_plugin::shared>, euf::ac_plugin::monomial_hash, euf::ac_plugin::monomial_eq>::entry_eq_proc", ptr, i32, i32, i32, [4 x i8] }>
%"struct.table2map<default_map_entry<unsigned int, euf::ac_plugin::shared>, euf::ac_plugin::monomial_hash, euf::ac_plugin::monomial_eq>::entry_hash_proc" = type { %"struct.euf::ac_plugin::monomial_hash" }
%"struct.table2map<default_map_entry<unsigned int, euf::ac_plugin::shared>, euf::ac_plugin::monomial_hash, euf::ac_plugin::monomial_eq>::entry_eq_proc" = type { %"struct.euf::ac_plugin::monomial_eq" }
%class.svector.11 = type { %class.vector.12 }
%class.vector.12 = type { ptr }
%class.svector.13 = type { %class.vector.14 }
%class.vector.14 = type { ptr }
%class.svector.15 = type { %class.vector.16 }
%class.vector.16 = type { ptr }
%class.svector.17 = type { %class.vector.18 }
%class.vector.18 = type { ptr }
%"class.std::function" = type { %"class.std::_Function_base", ptr }
%"class.std::_Function_base" = type { %"union.std::_Any_data", ptr }
%"union.std::_Any_data" = type { %"union.std::_Nocopy_types" }
%"union.std::_Nocopy_types" = type { { i64, i64 } }
%class.ptr_vector.19 = type { %class.vector.20 }
%class.vector.20 = type { ptr }
%class.ptr_vector = type { %class.vector.0 }
%class.vector.0 = type { ptr }
%"struct.euf::ac_plugin::ref_counts" = type { %class.svector.9, %class.svector.9 }
%class.svector.9 = type { %class.vector.10 }
%class.vector.10 = type { ptr }
%class.svector = type { %class.vector.1 }
%class.vector.1 = type { ptr }
%class.ast = type { i32, i32, i32, i32 }
%"class.euf::enode" = type { ptr, i8, i8, i8, i8, i8, i8, i8, i8, i8, i32, i32, i32, i32, i32, i32, %class.ptr_vector.19, ptr, ptr, ptr, ptr, %class.id_var_list, %"class.euf::justification", %"class.euf::justification", i32, i8, %class.approx_set, %class.approx_set, [0 x ptr] }
%class.id_var_list = type { i32, ptr }
%"class.euf::justification" = type { i32, %union.anon, %union.anon.41 }
%union.anon = type { ptr }
%union.anon.41 = type { ptr }
%class.approx_set = type { %class.approx_set_tpl }
%class.approx_set_tpl = type { i64 }
%"struct.euf::ac_plugin::node" = type { ptr, ptr, ptr, %"class.euf::justification", ptr, %class.svector.9, %class.svector.9 }
%"struct.euf::ac_plugin::monomial_t" = type { %class.ptr_vector, %"struct.euf::ac_plugin::bloom" }
%"struct.euf::ac_plugin::bloom" = type { i64, i64 }
%"struct.euf::ac_plugin::eq" = type { i32, i32, i32, %"class.euf::justification" }

; Function Attrs: mustprogress nounwind uwtable
define linkonce_odr hidden noundef i32 @_ZNK3ast6get_idEv(ptr noundef nonnull align 4 dereferenceable(16) %0) #5 comdat align 2 {
  %2 = alloca ptr, align 8
  store ptr %0, ptr %2, align 8, !tbaa !265
  %3 = load ptr, ptr %2, align 8
  %4 = getelementptr inbounds nuw %class.ast, ptr %3, i32 0, i32 0
  %5 = load i32, ptr %4, align 4, !tbaa !355
  ret i32 %5
}

; Function Attrs: mustprogress uwtable
define linkonce_odr hidden noundef i32 @_ZNK3euf5enode6get_idEv(ptr noundef nonnull align 8 dereferenceable(176) %0) #4 comdat align 2 {
  %2 = alloca ptr, align 8
  store ptr %0, ptr %2, align 8, !tbaa !151
  %3 = load ptr, ptr %2, align 8
  %4 = getelementptr inbounds nuw %"class.euf::enode", ptr %3, i32 0, i32 0
  %5 = load ptr, ptr %4, align 8, !tbaa !173
  %6 = call noundef i32 @_ZNK3ast6get_idEv(ptr noundef nonnull align 4 dereferenceable(16) %5)
  ret i32 %6
}

; Function Attrs: mustprogress nounwind uwtable
define linkonce_odr hidden noundef nonnull align 8 dereferenceable(8) ptr @_ZNK6vectorIPN3euf9ac_plugin4nodeELb0EjEixEj(ptr noundef nonnull align 8 dereferenceable(8) %0, i32 noundef %1) #5 comdat align 2 {
  %3 = alloca ptr, align 8
  %4 = alloca i32, align 4
  store ptr %0, ptr %3, align 8, !tbaa !124
  store i32 %1, ptr %4, align 4, !tbaa !10
  %5 = load ptr, ptr %3, align 8
  %6 = getelementptr inbounds nuw %class.vector.0, ptr %5, i32 0, i32 0
  %7 = load ptr, ptr %6, align 8, !tbaa !186
  %8 = load i32, ptr %4, align 4, !tbaa !10
  %9 = zext i32 %8 to i64
  %10 = getelementptr inbounds nuw ptr, ptr %7, i64 %9
  ret ptr %10
}

; Function Attrs: mustprogress nounwind uwtable
define linkonce_odr hidden noundef i32 @_ZNK6vectorIPN3euf9ac_plugin4nodeELb0EjE4sizeEv(ptr noundef nonnull align 8 dereferenceable(8) %0) #5 comdat align 2 {
  %2 = alloca i32, align 4
  %3 = alloca ptr, align 8
  store ptr %0, ptr %3, align 8, !tbaa !124
  %4 = load ptr, ptr %3, align 8
  %5 = getelementptr inbounds nuw %class.vector.0, ptr %4, i32 0, i32 0
  %6 = load ptr, ptr %5, align 8, !tbaa !186
  %7 = icmp eq ptr %6, null
  br i1 %7, label %8, label %9

8:                                                ; preds = %1
  store i32 0, ptr %2, align 4
  br label %14

9:                                                ; preds = %1
  %10 = getelementptr inbounds nuw %class.vector.0, ptr %4, i32 0, i32 0
  %11 = load ptr, ptr %10, align 8, !tbaa !186
  %12 = getelementptr inbounds i32, ptr %11, i64 -1
  %13 = load i32, ptr %12, align 4, !tbaa !10
  store i32 %13, ptr %2, align 4
  br label %14

14:                                               ; preds = %9, %8
  %15 = load i32, ptr %2, align 4
  ret i32 %15
}

; Function Attrs: mustprogress nounwind uwtable
define linkonce_odr hidden noundef nonnull align 8 dereferenceable(24) ptr @_ZN6vectorIN3euf9ac_plugin10monomial_tELb1EjEixEj(ptr noundef nonnull align 8 dereferenceable(8) %0, i32 noundef %1) #5 comdat align 2 {
  %3 = alloca ptr, align 8
  %4 = alloca i32, align 4
  store ptr %0, ptr %3, align 8, !tbaa !87
  store i32 %1, ptr %4, align 4, !tbaa !10
  %5 = load ptr, ptr %3, align 8
  %6 = getelementptr inbounds nuw %class.vector.2, ptr %5, i32 0, i32 0
  %7 = load ptr, ptr %6, align 8, !tbaa !89
  %8 = load i32, ptr %4, align 4, !tbaa !10
  %9 = zext i32 %8 to i64
  %10 = getelementptr inbounds nuw %"struct.euf::ac_plugin::monomial_t", ptr %7, i64 %9
  ret ptr %10
}

; Function Attrs: mustprogress uwtable
define linkonce_odr hidden noundef i32 @_ZNK3euf9ac_plugin4node7root_idEv(ptr noundef nonnull align 8 dereferenceable(72) %0) #4 comdat align 2 {
  %2 = alloca ptr, align 8
  store ptr %0, ptr %2, align 8, !tbaa !164
  %3 = load ptr, ptr %2, align 8
  %4 = getelementptr inbounds nuw %"struct.euf::ac_plugin::node", ptr %3, i32 0, i32 1
  %5 = load ptr, ptr %4, align 8, !tbaa !196
  %6 = getelementptr inbounds nuw %"struct.euf::ac_plugin::node", ptr %5, i32 0, i32 0
  %7 = load ptr, ptr %6, align 8, !tbaa !194
  %8 = call noundef i32 @_ZNK3euf5enode6get_idEv(ptr noundef nonnull align 8 dereferenceable(176) %7)
  ret i32 %8
}

; Function Attrs: mustprogress uwtable
define linkonce_odr hidden noundef ptr @_ZNK3euf9ac_plugin10monomial_tixEj(ptr noundef nonnull align 8 dereferenceable(24) %0, i32 noundef %1) #4 comdat align 2 {
  %3 = alloca ptr, align 8
  %4 = alloca i32, align 4
  store ptr %0, ptr %3, align 8, !tbaa !162
  store i32 %1, ptr %4, align 4, !tbaa !10
  %5 = load ptr, ptr %3, align 8
  %6 = getelementptr inbounds nuw %"struct.euf::ac_plugin::monomial_t", ptr %5, i32 0, i32 0
  %7 = load i32, ptr %4, align 4, !tbaa !10
  %8 = call noundef nonnull align 8 dereferenceable(8) ptr @_ZNK6vectorIPN3euf9ac_plugin4nodeELb0EjEixEj(ptr noundef nonnull align 8 dereferenceable(8) %6, i32 noundef %7)
  %9 = load ptr, ptr %8, align 8, !tbaa !164
  ret ptr %9
}

; Function Attrs: inlinehint mustprogress nounwind uwtable
define linkonce_odr void @_ZSt4swapIjENSt9enable_ifIXsr6__and_ISt6__not_ISt15__is_tuple_likeIT_EESt21is_move_constructibleIS3_ESt18is_move_assignableIS3_EEE5valueEvE4typeERS3_SC_(ptr noundef nonnull align 4 dereferenceable(4) %0, ptr noundef nonnull align 4 dereferenceable(4) %1) #6 comdat {
  %3 = alloca ptr, align 8
  %4 = alloca ptr, align 8
  %5 = alloca i32, align 4
  store ptr %0, ptr %3, align 8, !tbaa !184
  store ptr %1, ptr %4, align 8, !tbaa !184
  call void @llvm.lifetime.start.p0(i64 4, ptr %5) #3
  %6 = load ptr, ptr %3, align 8, !tbaa !184
  %7 = load i32, ptr %6, align 4, !tbaa !10
  store i32 %7, ptr %5, align 4, !tbaa !10
  %8 = load ptr, ptr %4, align 8, !tbaa !184
  %9 = load i32, ptr %8, align 4, !tbaa !10
  %10 = load ptr, ptr %3, align 8, !tbaa !184
  store i32 %9, ptr %10, align 4, !tbaa !10
  %11 = load i32, ptr %5, align 4, !tbaa !10
  %12 = load ptr, ptr %4, align 8, !tbaa !184
  store i32 %11, ptr %12, align 4, !tbaa !10
  call void @llvm.lifetime.end.p0(i64 4, ptr %5) #3
  ret void
}

; Function Attrs: mustprogress uwtable
define linkonce_odr hidden noundef i32 @_ZNK3euf9ac_plugin10monomial_t4sizeEv(ptr noundef nonnull align 8 dereferenceable(24) %0) #4 comdat align 2 {
  %2 = alloca ptr, align 8
  store ptr %0, ptr %2, align 8, !tbaa !162
  %3 = load ptr, ptr %2, align 8
  %4 = getelementptr inbounds nuw %"struct.euf::ac_plugin::monomial_t", ptr %3, i32 0, i32 0
  %5 = call noundef i32 @_ZNK6vectorIPN3euf9ac_plugin4nodeELb0EjE4sizeEv(ptr noundef nonnull align 8 dereferenceable(8) %4)
  ret i32 %5
}

; Function Attrs: mustprogress uwtable
define linkonce_odr hidden noundef nonnull align 8 dereferenceable(24) ptr @_ZN3euf9ac_plugin8monomialEj(ptr noundef nonnull align 8 dereferenceable(432) %0, i32 noundef %1) #4 comdat align 2 {
  %3 = alloca ptr, align 8
  %4 = alloca i32, align 4
  store ptr %0, ptr %3, align 8, !tbaa !3
  store i32 %1, ptr %4, align 4, !tbaa !10
  %5 = load ptr, ptr %3, align 8
  %6 = getelementptr inbounds nuw %"class.euf::ac_plugin", ptr %5, i32 0, i32 7
  %7 = load i32, ptr %4, align 4, !tbaa !10
  %8 = call noundef nonnull align 8 dereferenceable(24) ptr @_ZN6vectorIN3euf9ac_plugin10monomial_tELb1EjEixEj(ptr noundef nonnull align 8 dereferenceable(8) %6, i32 noundef %7)
  ret ptr %8
}

; Function Attrs: mustprogress uwtable
define hidden noundef zeroext i1 @_ZN3euf9ac_plugin15orient_equationERNS0_2eqE(ptr noundef nonnull align 8 dereferenceable(432) %0, ptr noundef nonnull align 8 dereferenceable(40) %1) #4 align 2 {
  %3 = alloca i1, align 1
  %4 = alloca ptr, align 8
  %5 = alloca ptr, align 8
  %6 = alloca ptr, align 8
  %7 = alloca ptr, align 8
  %8 = alloca i32, align 4
  %9 = alloca i32, align 4
  store ptr %0, ptr %4, align 8, !tbaa !3
  store ptr %1, ptr %5, align 8, !tbaa !198
  %10 = load ptr, ptr %4, align 8
  call void @llvm.lifetime.start.p0(i64 8, ptr %6) #3
  %11 = load ptr, ptr %5, align 8, !tbaa !198
  %12 = getelementptr inbounds nuw %"struct.euf::ac_plugin::eq", ptr %11, i32 0, i32 0
  %13 = load i32, ptr %12, align 8, !tbaa !274
  %14 = call noundef nonnull align 8 dereferenceable(24) ptr @_ZN3euf9ac_plugin8monomialEj(ptr noundef nonnull align 8 dereferenceable(432) %10, i32 noundef %13)
  store ptr %14, ptr %6, align 8, !tbaa !162
  call void @llvm.lifetime.start.p0(i64 8, ptr %7) #3
  %15 = load ptr, ptr %5, align 8, !tbaa !198
  %16 = getelementptr inbounds nuw %"struct.euf::ac_plugin::eq", ptr %15, i32 0, i32 1
  %17 = load i32, ptr %16, align 4, !tbaa !275
  %18 = call noundef nonnull align 8 dereferenceable(24) ptr @_ZN3euf9ac_plugin8monomialEj(ptr noundef nonnull align 8 dereferenceable(432) %10, i32 noundef %17)
  store ptr %18, ptr %7, align 8, !tbaa !162
  %19 = load ptr, ptr %6, align 8, !tbaa !162
  %20 = call noundef i32 @_ZNK3euf9ac_plugin10monomial_t4sizeEv(ptr noundef nonnull align 8 dereferenceable(24) %19)
  %21 = load ptr, ptr %7, align 8, !tbaa !162
  %22 = call noundef i32 @_ZNK3euf9ac_plugin10monomial_t4sizeEv(ptr noundef nonnull align 8 dereferenceable(24) %21)
  %23 = icmp ugt i32 %20, %22
  br i1 %23, label %24, label %25

24:                                               ; preds = %2
  store i1 true, ptr %3, align 1
  store i32 1, ptr %8, align 4
  br label %76

25:                                               ; preds = %2
  %26 = load ptr, ptr %6, align 8, !tbaa !162
  %27 = call noundef i32 @_ZNK3euf9ac_plugin10monomial_t4sizeEv(ptr noundef nonnull align 8 dereferenceable(24) %26)
  %28 = load ptr, ptr %7, align 8, !tbaa !162
  %29 = call noundef i32 @_ZNK3euf9ac_plugin10monomial_t4sizeEv(ptr noundef nonnull align 8 dereferenceable(24) %28)
  %30 = icmp ult i32 %27, %29
  br i1 %30, label %31, label %36

31:                                               ; preds = %25
  %32 = load ptr, ptr %5, align 8, !tbaa !198
  %33 = getelementptr inbounds nuw %"struct.euf::ac_plugin::eq", ptr %32, i32 0, i32 0
  %34 = load ptr, ptr %5, align 8, !tbaa !198
  %35 = getelementptr inbounds nuw %"struct.euf::ac_plugin::eq", ptr %34, i32 0, i32 1
  call void @_ZSt4swapIjENSt9enable_ifIXsr6__and_ISt6__not_ISt15__is_tuple_likeIT_EESt21is_move_constructibleIS3_ESt18is_move_assignableIS3_EEE5valueEvE4typeERS3_SC_(ptr noundef nonnull align 4 dereferenceable(4) %33, ptr noundef nonnull align 4 dereferenceable(4) %35) #3
  store i1 true, ptr %3, align 1
  store i32 1, ptr %8, align 4
  br label %76

36:                                               ; preds = %25
  %37 = load ptr, ptr %6, align 8, !tbaa !162
  call void @_ZN3euf9ac_plugin4sortERNS0_10monomial_tE(ptr noundef nonnull align 8 dereferenceable(432) %10, ptr noundef nonnull align 8 dereferenceable(24) %37)
  %38 = load ptr, ptr %7, align 8, !tbaa !162
  call void @_ZN3euf9ac_plugin4sortERNS0_10monomial_tE(ptr noundef nonnull align 8 dereferenceable(432) %10, ptr noundef nonnull align 8 dereferenceable(24) %38)
  call void @llvm.lifetime.start.p0(i64 4, ptr %9) #3
  %39 = load ptr, ptr %6, align 8, !tbaa !162
  %40 = call noundef i32 @_ZNK3euf9ac_plugin10monomial_t4sizeEv(ptr noundef nonnull align 8 dereferenceable(24) %39)
  store i32 %40, ptr %9, align 4, !tbaa !10
  br label %41

41:                                               ; preds = %56, %36
  %42 = load i32, ptr %9, align 4, !tbaa !10
  %43 = add i32 %42, -1
  store i32 %43, ptr %9, align 4, !tbaa !10
  %44 = icmp ugt i32 %42, 0
  br i1 %44, label %46, label %45

45:                                               ; preds = %41
  store i32 2, ptr %8, align 4
  br label %73

46:                                               ; preds = %41
  %47 = load ptr, ptr %6, align 8, !tbaa !162
  %48 = load i32, ptr %9, align 4, !tbaa !10
  %49 = call noundef ptr @_ZNK3euf9ac_plugin10monomial_tixEj(ptr noundef nonnull align 8 dereferenceable(24) %47, i32 noundef %48)
  %50 = call noundef i32 @_ZNK3euf9ac_plugin4node7root_idEv(ptr noundef nonnull align 8 dereferenceable(72) %49)
  %51 = load ptr, ptr %7, align 8, !tbaa !162
  %52 = load i32, ptr %9, align 4, !tbaa !10
  %53 = call noundef ptr @_ZNK3euf9ac_plugin10monomial_tixEj(ptr noundef nonnull align 8 dereferenceable(24) %51, i32 noundef %52)
  %54 = call noundef i32 @_ZNK3euf9ac_plugin4node7root_idEv(ptr noundef nonnull align 8 dereferenceable(72) %53)
  %55 = icmp eq i32 %50, %54
  br i1 %55, label %56, label %57

56:                                               ; preds = %46
  br label %41, !llvm.loop !281

57:                                               ; preds = %46
  %58 = load ptr, ptr %6, align 8, !tbaa !162
  %59 = load i32, ptr %9, align 4, !tbaa !10
  %60 = call noundef ptr @_ZNK3euf9ac_plugin10monomial_tixEj(ptr noundef nonnull align 8 dereferenceable(24) %58, i32 noundef %59)
  %61 = call noundef i32 @_ZNK3euf9ac_plugin4node7root_idEv(ptr noundef nonnull align 8 dereferenceable(72) %60)
  %62 = load ptr, ptr %7, align 8, !tbaa !162
  %63 = load i32, ptr %9, align 4, !tbaa !10
  %64 = call noundef ptr @_ZNK3euf9ac_plugin10monomial_tixEj(ptr noundef nonnull align 8 dereferenceable(24) %62, i32 noundef %63)
  %65 = call noundef i32 @_ZNK3euf9ac_plugin4node7root_idEv(ptr noundef nonnull align 8 dereferenceable(72) %64)
  %66 = icmp ult i32 %61, %65
  br i1 %66, label %67, label %72

67:                                               ; preds = %57
  %68 = load ptr, ptr %5, align 8, !tbaa !198
  %69 = getelementptr inbounds nuw %"struct.euf::ac_plugin::eq", ptr %68, i32 0, i32 0
  %70 = load ptr, ptr %5, align 8, !tbaa !198
  %71 = getelementptr inbounds nuw %"struct.euf::ac_plugin::eq", ptr %70, i32 0, i32 1
  call void @_ZSt4swapIjENSt9enable_ifIXsr6__and_ISt6__not_ISt15__is_tuple_likeIT_EESt21is_move_constructibleIS3_ESt18is_move_assignableIS3_EEE5valueEvE4typeERS3_SC_(ptr noundef nonnull align 4 dereferenceable(4) %69, ptr noundef nonnull align 4 dereferenceable(4) %71) #3
  br label %72

72:                                               ; preds = %67, %57
  store i1 true, ptr %3, align 1
  store i32 1, ptr %8, align 4
  br label %73

73:                                               ; preds = %72, %45
  call void @llvm.lifetime.end.p0(i64 4, ptr %9) #3
  %74 = load i32, ptr %8, align 4
  switch i32 %74, label %76 [
    i32 2, label %75
  ]

75:                                               ; preds = %73
  store i1 false, ptr %3, align 1
  store i32 1, ptr %8, align 4
  br label %76

76:                                               ; preds = %75, %73, %31, %24
  call void @llvm.lifetime.end.p0(i64 8, ptr %7) #3
  call void @llvm.lifetime.end.p0(i64 8, ptr %6) #3
  %77 = load i1, ptr %3, align 1
  ret i1 %77
}