; Function Attrs: mustprogress nofree nosync nounwind memory(readwrite, inaccessiblemem: none) uwtable
define hidden noundef zeroext i1 @_ZN3euf9ac_plugin15orient_equationERNS0_2eqE(ptr noundef nonnull readonly align 8 captures(none) dereferenceable(432) %0, ptr noundef nonnull align 8 captures(none) dereferenceable(40) %1) local_unnamed_addr #7 align 2 {
  %3 = load i32, ptr %1, align 8, !tbaa !221
  %4 = getelementptr inbounds nuw i8, ptr %0, i64 56
  %5 = load ptr, ptr %4, align 8, !tbaa !108
  %6 = zext i32 %3 to i64
  %7 = getelementptr inbounds nuw %"struct.euf::ac_plugin::monomial_t", ptr %5, i64 %6
  %8 = getelementptr inbounds nuw i8, ptr %1, i64 4
  %9 = load i32, ptr %8, align 4, !tbaa !222
  %10 = zext i32 %9 to i64
  %11 = getelementptr inbounds nuw %"struct.euf::ac_plugin::monomial_t", ptr %5, i64 %10
  %12 = load ptr, ptr %7, align 8, !tbaa !99
  %13 = icmp eq ptr %12, null
  br i1 %13, label %_ZNK3euf9ac_plugin10monomial_t4sizeEv.exit, label %14

14:                                               ; preds = %2
  %15 = getelementptr inbounds i8, ptr %12, i64 -4
  %16 = load i32, ptr %15, align 4, !tbaa !109
  br label %_ZNK3euf9ac_plugin10monomial_t4sizeEv.exit

_ZNK3euf9ac_plugin10monomial_t4sizeEv.exit:       ; preds = %2, %14
  %.0.i.i = phi i32 [ %16, %14 ], [ 0, %2 ]
  %17 = load ptr, ptr %11, align 8, !tbaa !99
  %18 = icmp eq ptr %17, null
  br i1 %18, label %_ZNK3euf9ac_plugin10monomial_t4sizeEv.exit27, label %19

19:                                               ; preds = %_ZNK3euf9ac_plugin10monomial_t4sizeEv.exit
  %20 = getelementptr inbounds i8, ptr %17, i64 -4
  %21 = load i32, ptr %20, align 4, !tbaa !109
  br label %_ZNK3euf9ac_plugin10monomial_t4sizeEv.exit27

_ZNK3euf9ac_plugin10monomial_t4sizeEv.exit27:     ; preds = %_ZNK3euf9ac_plugin10monomial_t4sizeEv.exit, %19
  %.0.i.i26 = phi i32 [ %21, %19 ], [ 0, %_ZNK3euf9ac_plugin10monomial_t4sizeEv.exit ]
  %22 = icmp ugt i32 %.0.i.i, %.0.i.i26
  br i1 %22, label %.loopexit, label %23

23:                                               ; preds = %_ZNK3euf9ac_plugin10monomial_t4sizeEv.exit27
  br i1 %13, label %_ZNK3euf9ac_plugin10monomial_t4sizeEv.exit29, label %24

24:                                               ; preds = %23
  %25 = getelementptr inbounds i8, ptr %12, i64 -4
  %26 = load i32, ptr %25, align 4, !tbaa !109
  br label %_ZNK3euf9ac_plugin10monomial_t4sizeEv.exit29

_ZNK3euf9ac_plugin10monomial_t4sizeEv.exit29:     ; preds = %23, %24
  %.0.i.i28 = phi i32 [ %26, %24 ], [ 0, %23 ]
  br i1 %18, label %_ZNK3euf9ac_plugin10monomial_t4sizeEv.exit31, label %27

27:                                               ; preds = %_ZNK3euf9ac_plugin10monomial_t4sizeEv.exit29
  %28 = getelementptr inbounds i8, ptr %17, i64 -4
  %29 = load i32, ptr %28, align 4, !tbaa !109
  br label %_ZNK3euf9ac_plugin10monomial_t4sizeEv.exit31

_ZNK3euf9ac_plugin10monomial_t4sizeEv.exit31:     ; preds = %_ZNK3euf9ac_plugin10monomial_t4sizeEv.exit29, %27
  %.0.i.i30 = phi i32 [ %29, %27 ], [ 0, %_ZNK3euf9ac_plugin10monomial_t4sizeEv.exit29 ]
  %30 = icmp ult i32 %.0.i.i28, %.0.i.i30
  br i1 %30, label %.loopexit.sink.split, label %31

31:                                               ; preds = %_ZNK3euf9ac_plugin10monomial_t4sizeEv.exit31
  tail call void @_ZN3euf9ac_plugin4sortERNS0_10monomial_tE(ptr nonnull align 8 poison, ptr noundef nonnull align 8 dereferenceable(24) %7)
  tail call void @_ZN3euf9ac_plugin4sortERNS0_10monomial_tE(ptr nonnull align 8 poison, ptr noundef nonnull align 8 dereferenceable(24) %11)
  %32 = load ptr, ptr %7, align 8, !tbaa !99
  %33 = icmp eq ptr %32, null
  br i1 %33, label %_ZNK3euf9ac_plugin10monomial_t4sizeEv.exit33.preheader, label %34

34:                                               ; preds = %31
  %35 = getelementptr inbounds i8, ptr %32, i64 -4
  %36 = load i32, ptr %35, align 4, !tbaa !109
  %37 = zext i32 %36 to i64
  br label %_ZNK3euf9ac_plugin10monomial_t4sizeEv.exit33.preheader

_ZNK3euf9ac_plugin10monomial_t4sizeEv.exit33.preheader: ; preds = %31, %34
  %indvars.iv.ph = phi i64 [ 0, %31 ], [ %37, %34 ]
  br label %_ZNK3euf9ac_plugin10monomial_t4sizeEv.exit33

_ZNK3euf9ac_plugin10monomial_t4sizeEv.exit33:     ; preds = %_ZNK3euf9ac_plugin10monomial_t4sizeEv.exit33.preheader, %38
  %indvars.iv = phi i64 [ %39, %38 ], [ %indvars.iv.ph, %_ZNK3euf9ac_plugin10monomial_t4sizeEv.exit33.preheader ]
  %.not.not = icmp eq i64 %indvars.iv, 0
  br i1 %.not.not, label %.loopexit, label %38

38:                                               ; preds = %_ZNK3euf9ac_plugin10monomial_t4sizeEv.exit33
  %39 = add nsw i64 %indvars.iv, -1
  %40 = getelementptr inbounds nuw ptr, ptr %32, i64 %39
  %41 = load ptr, ptr %40, align 8, !tbaa !149
  %42 = getelementptr inbounds nuw i8, ptr %41, i64 8
  %43 = load ptr, ptr %42, align 8, !tbaa !158
  %44 = load ptr, ptr %43, align 8, !tbaa !160
  %45 = load ptr, ptr %44, align 8, !tbaa !123
  %46 = load i32, ptr %45, align 4, !tbaa !139
  %47 = load ptr, ptr %11, align 8, !tbaa !99
  %48 = getelementptr inbounds nuw ptr, ptr %47, i64 %39
  %49 = load ptr, ptr %48, align 8, !tbaa !149
  %50 = getelementptr inbounds nuw i8, ptr %49, i64 8
  %51 = load ptr, ptr %50, align 8, !tbaa !158
  %52 = load ptr, ptr %51, align 8, !tbaa !160
  %53 = load ptr, ptr %52, align 8, !tbaa !123
  %54 = load i32, ptr %53, align 4, !tbaa !139
  %55 = icmp eq i32 %46, %54
  br i1 %55, label %_ZNK3euf9ac_plugin10monomial_t4sizeEv.exit33, label %56, !llvm.loop !229

56:                                               ; preds = %38
  %57 = icmp ult i32 %46, %54
  br i1 %57, label %58, label %.loopexit

58:                                               ; preds = %56
  %59 = load i32, ptr %1, align 8, !tbaa !109
  %60 = load i32, ptr %8, align 4, !tbaa !109
  br label %.loopexit.sink.split

.loopexit.sink.split:                             ; preds = %_ZNK3euf9ac_plugin10monomial_t4sizeEv.exit31, %58
  %.sink39 = phi i32 [ %60, %58 ], [ %9, %_ZNK3euf9ac_plugin10monomial_t4sizeEv.exit31 ]
  %.sink = phi i32 [ %59, %58 ], [ %3, %_ZNK3euf9ac_plugin10monomial_t4sizeEv.exit31 ]
  store i32 %.sink39, ptr %1, align 8, !tbaa !109
  store i32 %.sink, ptr %8, align 4, !tbaa !109
  br label %.loopexit

.loopexit:                                        ; preds = %_ZNK3euf9ac_plugin10monomial_t4sizeEv.exit33, %.loopexit.sink.split, %56, %_ZNK3euf9ac_plugin10monomial_t4sizeEv.exit27
  %.025 = phi i1 [ true, %_ZNK3euf9ac_plugin10monomial_t4sizeEv.exit27 ], [ true, %56 ], [ true, %.loopexit.sink.split ], [ false, %_ZNK3euf9ac_plugin10monomial_t4sizeEv.exit33 ]
  ret i1 %.025
}